; Function Attrs: mustprogress nofree norecurse nosync nounwind willreturn memory(argmem: write) uwtable
define dso_local void @PHP_RIPEMD256Init(ptr noundef writeonly captures(none) initializes((0, 40)) %0, ptr readnone captures(none) %1) #0 {
  %3 = getelementptr inbounds nuw i8, ptr %0, i64 32
  %4 = getelementptr inbounds nuw i8, ptr %0, i64 36
  store i32 0, ptr %4, align 4, !tbaa !4
  store i32 0, ptr %3, align 4, !tbaa !4
  store i32 1732584193, ptr %0, align 4, !tbaa !4
  %5 = getelementptr inbounds nuw i8, ptr %0, i64 4
  store i32 -271733879, ptr %5, align 4, !tbaa !4
  %6 = getelementptr inbounds nuw i8, ptr %0, i64 8
  store i32 -1732584194, ptr %6, align 4, !tbaa !4
  %7 = getelementptr inbounds nuw i8, ptr %0, i64 12
  store i32 271733878, ptr %7, align 4, !tbaa !4
  %8 = getelementptr inbounds nuw i8, ptr %0, i64 16
  store i32 1985229328, ptr %8, align 4, !tbaa !4
  %9 = getelementptr inbounds nuw i8, ptr %0, i64 20
  store i32 -19088744, ptr %9, align 4, !tbaa !4
  %10 = getelementptr inbounds nuw i8, ptr %0, i64 24
  store i32 -1985229329, ptr %10, align 4, !tbaa !4
  %11 = getelementptr inbounds nuw i8, ptr %0, i64 28
  store i32 19088743, ptr %11, align 4, !tbaa !4
  ret void
}